target datalayout = "e-m:e-p270:32:32-p271:32:32-p272:64:64-i64:64-i128:128-f80:128-n8:16:32:64-S128"
target triple = "x86_64-pc-linux-gnu"

%"class.pxrInternal_v0_24__pxrReserved__::GfVec3f" = type { [3 x float] }
%"class.pxrInternal_v0_24__pxrReserved__::GfBBox3d" = type <{ %"class.pxrInternal_v0_24__pxrReserved__::GfRange3d", %"class.pxrInternal_v0_24__pxrReserved__::GfMatrix4d", %"class.pxrInternal_v0_24__pxrReserved__::GfMatrix4d", i8, i8, [6 x i8] }>
%"class.pxrInternal_v0_24__pxrReserved__::GfRange3d" = type { %"class.pxrInternal_v0_24__pxrReserved__::GfVec3d", %"class.pxrInternal_v0_24__pxrReserved__::GfVec3d" }
%"class.pxrInternal_v0_24__pxrReserved__::GfVec3d" = type { [3 x double] }
%"class.pxrInternal_v0_24__pxrReserved__::GfMatrix4d" = type { %"class.pxrInternal_v0_24__pxrReserved__::GfMatrixData" }
%"class.pxrInternal_v0_24__pxrReserved__::GfMatrixData" = type { [16 x double] }

; Function Attrs: mustprogress nounwind uwtable
define linkonce_odr noundef nonnull align 8 dereferenceable(8) ptr @_ZN32pxrInternal_v0_24__pxrReserved__7GfVec3dixEm(ptr noundef nonnull align 8 dereferenceable(24) %0, i64 noundef %1) #2 comdat align 2 {
  %3 = alloca ptr, align 8
  %4 = alloca i64, align 8
  store ptr %0, ptr %3, align 8
  store i64 %1, ptr %4, align 8
  %5 = load ptr, ptr %3, align 8
  %6 = getelementptr inbounds nuw %"class.pxrInternal_v0_24__pxrReserved__::GfVec3d", ptr %5, i32 0, i32 0
  %7 = load i64, ptr %4, align 8
  %8 = getelementptr inbounds [3 x double], ptr %6, i64 0, i64 %7
  ret ptr %8
}

; Function Attrs: mustprogress uwtable
define linkonce_odr void @_ZN32pxrInternal_v0_24__pxrReserved__9GfRange3d8SetEmptyEv(ptr noundef nonnull align 8 dereferenceable(48) %0) #0 comdat align 2 {
  %2 = alloca ptr, align 8
  store ptr %0, ptr %2, align 8
  %3 = load ptr, ptr %2, align 8
  %4 = getelementptr inbounds nuw %"class.pxrInternal_v0_24__pxrReserved__::GfRange3d", ptr %3, i32 0, i32 0
  %5 = call noundef nonnull align 8 dereferenceable(8) ptr @_ZN32pxrInternal_v0_24__pxrReserved__7GfVec3dixEm(ptr noundef nonnull align 8 dereferenceable(24) %4, i64 noundef 2)
  store double 0x47EFFFFFE0000000, ptr %5, align 8
  %6 = getelementptr inbounds nuw %"class.pxrInternal_v0_24__pxrReserved__::GfRange3d", ptr %3, i32 0, i32 0
  %7 = call noundef nonnull align 8 dereferenceable(8) ptr @_ZN32pxrInternal_v0_24__pxrReserved__7GfVec3dixEm(ptr noundef nonnull align 8 dereferenceable(24) %6, i64 noundef 1)
  store double 0x47EFFFFFE0000000, ptr %7, align 8
  %8 = getelementptr inbounds nuw %"class.pxrInternal_v0_24__pxrReserved__::GfRange3d", ptr %3, i32 0, i32 0
  %9 = call noundef nonnull align 8 dereferenceable(8) ptr @_ZN32pxrInternal_v0_24__pxrReserved__7GfVec3dixEm(ptr noundef nonnull align 8 dereferenceable(24) %8, i64 noundef 0)
  store double 0x47EFFFFFE0000000, ptr %9, align 8
  %10 = getelementptr inbounds nuw %"class.pxrInternal_v0_24__pxrReserved__::GfRange3d", ptr %3, i32 0, i32 1
  %11 = call noundef nonnull align 8 dereferenceable(8) ptr @_ZN32pxrInternal_v0_24__pxrReserved__7GfVec3dixEm(ptr noundef nonnull align 8 dereferenceable(24) %10, i64 noundef 2)
  store double 0xC7EFFFFFE0000000, ptr %11, align 8
  %12 = getelementptr inbounds nuw %"class.pxrInternal_v0_24__pxrReserved__::GfRange3d", ptr %3, i32 0, i32 1
  %13 = call noundef nonnull align 8 dereferenceable(8) ptr @_ZN32pxrInternal_v0_24__pxrReserved__7GfVec3dixEm(ptr noundef nonnull align 8 dereferenceable(24) %12, i64 noundef 1)
  store double 0xC7EFFFFFE0000000, ptr %13, align 8
  %14 = getelementptr inbounds nuw %"class.pxrInternal_v0_24__pxrReserved__::GfRange3d", ptr %3, i32 0, i32 1
  %15 = call noundef nonnull align 8 dereferenceable(8) ptr @_ZN32pxrInternal_v0_24__pxrReserved__7GfVec3dixEm(ptr noundef nonnull align 8 dereferenceable(24) %14, i64 noundef 0)
  store double 0xC7EFFFFFE0000000, ptr %15, align 8
  ret void
}

; Function Attrs: mustprogress nounwind uwtable
define linkonce_odr noundef nonnull align 8 dereferenceable(8) ptr @_ZNK32pxrInternal_v0_24__pxrReserved__7GfVec3dixEm(ptr noundef nonnull align 8 dereferenceable(24) %0, i64 noundef %1) #2 comdat align 2 {
  %3 = alloca ptr, align 8
  %4 = alloca i64, align 8
  store ptr %0, ptr %3, align 8
  store i64 %1, ptr %4, align 8
  %5 = load ptr, ptr %3, align 8
  %6 = getelementptr inbounds nuw %"class.pxrInternal_v0_24__pxrReserved__::GfVec3d", ptr %5, i32 0, i32 0
  %7 = load i64, ptr %4, align 8
  %8 = getelementptr inbounds [3 x double], ptr %6, i64 0, i64 %7
  ret ptr %8
}

; Function Attrs: mustprogress uwtable
define linkonce_odr void @_ZN32pxrInternal_v0_24__pxrReserved__8GfBBox3d3SetERKNS_9GfRange3dERKNS_10GfMatrix4dE(ptr noundef nonnull align 8 dereferenceable(306) %0, ptr noundef nonnull align 8 dereferenceable(48) %1, ptr noundef nonnull align 8 dereferenceable(128) %2) #0 comdat align 2 {
  %4 = alloca ptr, align 8
  %5 = alloca ptr, align 8
  %6 = alloca ptr, align 8
  store ptr %0, ptr %4, align 8
  store ptr %1, ptr %5, align 8
  store ptr %2, ptr %6, align 8
  %7 = load ptr, ptr %4, align 8
  %8 = load ptr, ptr %5, align 8
  %9 = getelementptr inbounds nuw %"class.pxrInternal_v0_24__pxrReserved__::GfBBox3d", ptr %7, i32 0, i32 0
  call void @llvm.memcpy.p0.p0.i64(ptr align 8 %9, ptr align 8 %8, i64 48, i1 false)
  %10 = load ptr, ptr %6, align 8
  call void @_ZN32pxrInternal_v0_24__pxrReserved__8GfBBox3d12_SetMatricesERKNS_10GfMatrix4dE(ptr noundef nonnull align 8 dereferenceable(306) %7, ptr noundef nonnull align 8 dereferenceable(128) %10)
  ret void
}

; Function Attrs: mustprogress uwtable
define linkonce_odr void @_ZN32pxrInternal_v0_24__pxrReserved__9GfRange3dC2Ev(ptr noundef nonnull align 8 dereferenceable(48) %0) unnamed_addr #0 comdat align 2 {
  %2 = alloca ptr, align 8
  store ptr %0, ptr %2, align 8
  %3 = load ptr, ptr %2, align 8
  call void @_ZN32pxrInternal_v0_24__pxrReserved__9GfRange3d8SetEmptyEv(ptr noundef nonnull align 8 dereferenceable(48) %3)
  ret void
}

; Function Attrs: mustprogress nounwind uwtable
define linkonce_odr noundef nonnull align 4 dereferenceable(4) ptr @_ZNK32pxrInternal_v0_24__pxrReserved__7GfVec3fixEm(ptr noundef nonnull align 4 dereferenceable(12) %0, i64 noundef %1) #2 comdat align 2 {
  %3 = alloca ptr, align 8
  %4 = alloca i64, align 8
  store ptr %0, ptr %3, align 8
  store i64 %1, ptr %4, align 8
  %5 = load ptr, ptr %3, align 8
  %6 = getelementptr inbounds nuw %"class.pxrInternal_v0_24__pxrReserved__::GfVec3f", ptr %5, i32 0, i32 0
  %7 = load i64, ptr %4, align 8
  %8 = getelementptr inbounds [3 x float], ptr %6, i64 0, i64 %7
  ret ptr %8
}

; Function Attrs: mustprogress nounwind uwtable
define linkonce_odr void @_ZN32pxrInternal_v0_24__pxrReserved__7GfVec3fC2Efff(ptr noundef nonnull align 4 dereferenceable(12) %0, float noundef %1, float noundef %2, float noundef %3) unnamed_addr #2 comdat align 2 {
  %5 = alloca ptr, align 8
  %6 = alloca float, align 4
  %7 = alloca float, align 4
  %8 = alloca float, align 4
  store ptr %0, ptr %5, align 8
  store float %1, ptr %6, align 4
  store float %2, ptr %7, align 4
  store float %3, ptr %8, align 4
  %9 = load ptr, ptr %5, align 8
  %10 = getelementptr inbounds nuw %"class.pxrInternal_v0_24__pxrReserved__::GfVec3f", ptr %9, i32 0, i32 0
  %11 = load float, ptr %6, align 4
  store float %11, ptr %10, align 4
  %12 = getelementptr inbounds float, ptr %10, i64 1
  %13 = load float, ptr %7, align 4
  store float %13, ptr %12, align 4
  %14 = getelementptr inbounds float, ptr %10, i64 2
  %15 = load float, ptr %8, align 4
  store float %15, ptr %14, align 4
  ret void
}

; Function Attrs: mustprogress nounwind uwtable
define linkonce_odr noundef nonnull align 8 dereferenceable(24) ptr @_ZNK32pxrInternal_v0_24__pxrReserved__9GfRange3d6GetMaxEv(ptr noundef nonnull align 8 dereferenceable(48) %0) #2 comdat align 2 {
  %2 = alloca ptr, align 8
  store ptr %0, ptr %2, align 8
  %3 = load ptr, ptr %2, align 8
  %4 = getelementptr inbounds nuw %"class.pxrInternal_v0_24__pxrReserved__::GfRange3d", ptr %3, i32 0, i32 1
  ret ptr %4
}

; Function Attrs: mustprogress uwtable
define linkonce_odr void @_ZN32pxrInternal_v0_24__pxrReserved__7GfVec3fC2ERKNS_7GfVec3dE(ptr noundef nonnull align 4 dereferenceable(12) %0, ptr noundef nonnull align 8 dereferenceable(24) %1) unnamed_addr #0 comdat align 2 {
  %3 = alloca ptr, align 8
  %4 = alloca ptr, align 8
  store ptr %0, ptr %3, align 8
  store ptr %1, ptr %4, align 8
  %5 = load ptr, ptr %3, align 8
  %6 = load ptr, ptr %4, align 8
  %7 = call noundef nonnull align 8 dereferenceable(8) ptr @_ZNK32pxrInternal_v0_24__pxrReserved__7GfVec3dixEm(ptr noundef nonnull align 8 dereferenceable(24) %6, i64 noundef 0)
  %8 = load double, ptr %7, align 8
  %9 = fptrunc double %8 to float
  %10 = getelementptr inbounds nuw %"class.pxrInternal_v0_24__pxrReserved__::GfVec3f", ptr %5, i32 0, i32 0
  %11 = getelementptr inbounds [3 x float], ptr %10, i64 0, i64 0
  store float %9, ptr %11, align 4
  %12 = load ptr, ptr %4, align 8
  %13 = call noundef nonnull align 8 dereferenceable(8) ptr @_ZNK32pxrInternal_v0_24__pxrReserved__7GfVec3dixEm(ptr noundef nonnull align 8 dereferenceable(24) %12, i64 noundef 1)
  %14 = load double, ptr %13, align 8
  %15 = fptrunc double %14 to float
  %16 = getelementptr inbounds nuw %"class.pxrInternal_v0_24__pxrReserved__::GfVec3f", ptr %5, i32 0, i32 0
  %17 = getelementptr inbounds [3 x float], ptr %16, i64 0, i64 1
  store float %15, ptr %17, align 4
  %18 = load ptr, ptr %4, align 8
  %19 = call noundef nonnull align 8 dereferenceable(8) ptr @_ZNK32pxrInternal_v0_24__pxrReserved__7GfVec3dixEm(ptr noundef nonnull align 8 dereferenceable(24) %18, i64 noundef 2)
  %20 = load double, ptr %19, align 8
  %21 = fptrunc double %20 to float
  %22 = getelementptr inbounds nuw %"class.pxrInternal_v0_24__pxrReserved__::GfVec3f", ptr %5, i32 0, i32 0
  %23 = getelementptr inbounds [3 x float], ptr %22, i64 0, i64 2
  store float %21, ptr %23, align 4
  ret void
}

; Function Attrs: mustprogress nounwind uwtable
define linkonce_odr noundef nonnull align 8 dereferenceable(24) ptr @_ZNK32pxrInternal_v0_24__pxrReserved__9GfRange3d6GetMinEv(ptr noundef nonnull align 8 dereferenceable(48) %0) #2 comdat align 2 {
  %2 = alloca ptr, align 8
  store ptr %0, ptr %2, align 8
  %3 = load ptr, ptr %2, align 8
  %4 = getelementptr inbounds nuw %"class.pxrInternal_v0_24__pxrReserved__::GfRange3d", ptr %3, i32 0, i32 0
  ret ptr %4
}

; Function Attrs: mustprogress uwtable
define linkonce_odr void @_ZN32pxrInternal_v0_24__pxrReserved__8GfBBox3dC2ERKNS_9GfRange3dERKNS_10GfMatrix4dE(ptr noundef nonnull align 8 dereferenceable(306) %0, ptr noundef nonnull align 8 dereferenceable(48) %1, ptr noundef nonnull align 8 dereferenceable(128) %2) unnamed_addr #0 comdat align 2 {
  %4 = alloca ptr, align 8
  %5 = alloca ptr, align 8
  %6 = alloca ptr, align 8
  store ptr %0, ptr %4, align 8
  store ptr %1, ptr %5, align 8
  store ptr %2, ptr %6, align 8
  %7 = load ptr, ptr %4, align 8
  %8 = getelementptr inbounds nuw %"class.pxrInternal_v0_24__pxrReserved__::GfBBox3d", ptr %7, i32 0, i32 0
  call void @_ZN32pxrInternal_v0_24__pxrReserved__9GfRange3dC2Ev(ptr noundef nonnull align 8 dereferenceable(48) %8)
  %9 = load ptr, ptr %5, align 8
  %10 = load ptr, ptr %6, align 8
  call void @_ZN32pxrInternal_v0_24__pxrReserved__8GfBBox3d3SetERKNS_9GfRange3dERKNS_10GfMatrix4dE(ptr noundef nonnull align 8 dereferenceable(306) %7, ptr noundef nonnull align 8 dereferenceable(48) %9, ptr noundef nonnull align 8 dereferenceable(128) %10)
  %11 = getelementptr inbounds nuw %"class.pxrInternal_v0_24__pxrReserved__::GfBBox3d", ptr %7, i32 0, i32 4
  store i8 0, ptr %11, align 1
  ret void
}

; Function Attrs: mustprogress nounwind uwtable
define linkonce_odr void @_ZN32pxrInternal_v0_24__pxrReserved__9GfRange3dC2ERKNS_7GfVec3dES3_(ptr noundef nonnull align 8 dereferenceable(48) %0, ptr noundef nonnull align 8 dereferenceable(24) %1, ptr noundef nonnull align 8 dereferenceable(24) %2) unnamed_addr #2 comdat align 2 {
  %4 = alloca ptr, align 8
  %5 = alloca ptr, align 8
  %6 = alloca ptr, align 8
  store ptr %0, ptr %4, align 8
  store ptr %1, ptr %5, align 8
  store ptr %2, ptr %6, align 8
  %7 = load ptr, ptr %4, align 8
  %8 = getelementptr inbounds nuw %"class.pxrInternal_v0_24__pxrReserved__::GfRange3d", ptr %7, i32 0, i32 0
  %9 = load ptr, ptr %5, align 8
  call void @llvm.memcpy.p0.p0.i64(ptr align 8 %8, ptr align 8 %9, i64 24, i1 false)
  %10 = getelementptr inbounds nuw %"class.pxrInternal_v0_24__pxrReserved__::GfRange3d", ptr %7, i32 0, i32 1
  %11 = load ptr, ptr %6, align 8
  call void @llvm.memcpy.p0.p0.i64(ptr align 8 %10, ptr align 8 %11, i64 24, i1 false)
  ret void
}

; Function Attrs: mustprogress uwtable
define linkonce_odr void @_ZN32pxrInternal_v0_24__pxrReserved__7GfVec3dC2ERKNS_7GfVec3fE(ptr noundef nonnull align 8 dereferenceable(24) %0, ptr noundef nonnull align 4 dereferenceable(12) %1) unnamed_addr #0 comdat align 2 {
  %3 = alloca ptr, align 8
  %4 = alloca ptr, align 8
  store ptr %0, ptr %3, align 8
  store ptr %1, ptr %4, align 8
  %5 = load ptr, ptr %3, align 8
  %6 = load ptr, ptr %4, align 8
  %7 = call noundef nonnull align 4 dereferenceable(4) ptr @_ZNK32pxrInternal_v0_24__pxrReserved__7GfVec3fixEm(ptr noundef nonnull align 4 dereferenceable(12) %6, i64 noundef 0)
  %8 = load float, ptr %7, align 4
  %9 = fpext float %8 to double
  %10 = getelementptr inbounds nuw %"class.pxrInternal_v0_24__pxrReserved__::GfVec3d", ptr %5, i32 0, i32 0
  %11 = getelementptr inbounds [3 x double], ptr %10, i64 0, i64 0
  store double %9, ptr %11, align 8
  %12 = load ptr, ptr %4, align 8
  %13 = call noundef nonnull align 4 dereferenceable(4) ptr @_ZNK32pxrInternal_v0_24__pxrReserved__7GfVec3fixEm(ptr noundef nonnull align 4 dereferenceable(12) %12, i64 noundef 1)
  %14 = load float, ptr %13, align 4
  %15 = fpext float %14 to double
  %16 = getelementptr inbounds nuw %"class.pxrInternal_v0_24__pxrReserved__::GfVec3d", ptr %5, i32 0, i32 0
  %17 = getelementptr inbounds [3 x double], ptr %16, i64 0, i64 1
  store double %15, ptr %17, align 8
  %18 = load ptr, ptr %4, align 8
  %19 = call noundef nonnull align 4 dereferenceable(4) ptr @_ZNK32pxrInternal_v0_24__pxrReserved__7GfVec3fixEm(ptr noundef nonnull align 4 dereferenceable(12) %18, i64 noundef 2)
  %20 = load float, ptr %19, align 4
  %21 = fpext float %20 to double
  %22 = getelementptr inbounds nuw %"class.pxrInternal_v0_24__pxrReserved__::GfVec3d", ptr %5, i32 0, i32 0
  %23 = getelementptr inbounds [3 x double], ptr %22, i64 0, i64 2
  store double %21, ptr %23, align 8
  ret void
}

; Function Attrs: mustprogress uwtable
define linkonce_odr { <2 x float>, float } @_ZNK32pxrInternal_v0_24__pxrReserved__7GfVec3fngEv(ptr noundef nonnull align 4 dereferenceable(12) %0) #0 comdat align 2 {
  %2 = alloca %"class.pxrInternal_v0_24__pxrReserved__::GfVec3f", align 4
  %3 = alloca ptr, align 8
  %4 = alloca { <2 x float>, float }, align 8
  store ptr %0, ptr %3, align 8
  %5 = load ptr, ptr %3, align 8
  %6 = getelementptr inbounds nuw %"class.pxrInternal_v0_24__pxrReserved__::GfVec3f", ptr %5, i32 0, i32 0
  %7 = getelementptr inbounds [3 x float], ptr %6, i64 0, i64 0
  %8 = load float, ptr %7, align 4
  %9 = fneg float %8
  %10 = getelementptr inbounds nuw %"class.pxrInternal_v0_24__pxrReserved__::GfVec3f", ptr %5, i32 0, i32 0
  %11 = getelementptr inbounds [3 x float], ptr %10, i64 0, i64 1
  %12 = load float, ptr %11, align 4
  %13 = fneg float %12
  %14 = getelementptr inbounds nuw %"class.pxrInternal_v0_24__pxrReserved__::GfVec3f", ptr %5, i32 0, i32 0
  %15 = getelementptr inbounds [3 x float], ptr %14, i64 0, i64 2
  %16 = load float, ptr %15, align 4
  %17 = fneg float %16
  call void @_ZN32pxrInternal_v0_24__pxrReserved__7GfVec3fC2Efff(ptr noundef nonnull align 4 dereferenceable(12) %2, float noundef %9, float noundef %13, float noundef %17)
  %18 = getelementptr inbounds nuw %"class.pxrInternal_v0_24__pxrReserved__::GfVec3f", ptr %2, i32 0, i32 0
  call void @llvm.memcpy.p0.p0.i64(ptr align 8 %4, ptr align 4 %18, i64 12, i1 false)
  %19 = load { <2 x float>, float }, ptr %4, align 8
  ret { <2 x float>, float } %19
}

; Function Attrs: mustprogress uwtable
define noundef zeroext i1 @_ZN32pxrInternal_v0_24__pxrReserved__14UsdGeomCapsule13ComputeExtentEddRKNS_7TfTokenERKNS_10GfMatrix4dEPNS_7VtArrayINS_7GfVec3fEEE(double noundef %0, double noundef %1, ptr noundef nonnull align 8 dereferenceable(8) %2, ptr noundef nonnull align 8 dereferenceable(128) %3, ptr noundef %4) #8 align 2 {
  %6 = alloca i1, align 1
  %7 = alloca double, align 8
  %8 = alloca double, align 8
  %9 = alloca ptr, align 8
  %10 = alloca ptr, align 8
  %11 = alloca ptr, align 8
  %12 = alloca %"class.pxrInternal_v0_24__pxrReserved__::GfVec3f", align 4
  %13 = alloca %"class.pxrInternal_v0_24__pxrReserved__::GfBBox3d", align 8
  %14 = alloca %"class.pxrInternal_v0_24__pxrReserved__::GfRange3d", align 8
  %15 = alloca %"class.pxrInternal_v0_24__pxrReserved__::GfVec3d", align 8
  %16 = alloca %"class.pxrInternal_v0_24__pxrReserved__::GfVec3f", align 4
  %17 = alloca { <2 x float>, float }, align 8
  %18 = alloca %"class.pxrInternal_v0_24__pxrReserved__::GfVec3d", align 8
  %19 = alloca %"class.pxrInternal_v0_24__pxrReserved__::GfRange3d", align 8
  %20 = alloca %"class.pxrInternal_v0_24__pxrReserved__::GfVec3f", align 4
  %21 = alloca %"class.pxrInternal_v0_24__pxrReserved__::GfVec3f", align 4
  store double %0, ptr %7, align 8
  store double %1, ptr %8, align 8
  store ptr %2, ptr %9, align 8
  store ptr %3, ptr %10, align 8
  store ptr %4, ptr %11, align 8
  %22 = load ptr, ptr %11, align 8
  call void @_ZN32pxrInternal_v0_24__pxrReserved__7VtArrayINS_7GfVec3fEE6resizeEm(ptr noundef nonnull align 8 dereferenceable(40) %22, i64 noundef 2)
  %23 = load double, ptr %7, align 8
  %24 = load double, ptr %8, align 8
  %25 = load ptr, ptr %9, align 8
  %26 = call noundef zeroext i1 @_ZN32pxrInternal_v0_24__pxrReserved__L17_ComputeExtentMaxEddRKNS_7TfTokenEPNS_7GfVec3fE(double noundef %23, double noundef %24, ptr noundef nonnull align 8 dereferenceable(8) %25, ptr noundef %12)
  br i1 %26, label %28, label %27

27:                                               ; preds = %5
  store i1 false, ptr %6, align 1
  br label %38

28:                                               ; preds = %5
  %29 = call { <2 x float>, float } @_ZNK32pxrInternal_v0_24__pxrReserved__7GfVec3fngEv(ptr noundef nonnull align 4 dereferenceable(12) %12)
  %30 = getelementptr inbounds nuw %"class.pxrInternal_v0_24__pxrReserved__::GfVec3f", ptr %16, i32 0, i32 0
  store { <2 x float>, float } %29, ptr %17, align 8
  call void @llvm.memcpy.p0.p0.i64(ptr align 4 %30, ptr align 8 %17, i64 12, i1 false)
  call void @_ZN32pxrInternal_v0_24__pxrReserved__7GfVec3dC2ERKNS_7GfVec3fE(ptr noundef nonnull align 8 dereferenceable(24) %15, ptr noundef nonnull align 4 dereferenceable(12) %16)
  call void @_ZN32pxrInternal_v0_24__pxrReserved__7GfVec3dC2ERKNS_7GfVec3fE(ptr noundef nonnull align 8 dereferenceable(24) %18, ptr noundef nonnull align 4 dereferenceable(12) %12)
  call void @_ZN32pxrInternal_v0_24__pxrReserved__9GfRange3dC2ERKNS_7GfVec3dES3_(ptr noundef nonnull align 8 dereferenceable(48) %14, ptr noundef nonnull align 8 dereferenceable(24) %15, ptr noundef nonnull align 8 dereferenceable(24) %18)
  %31 = load ptr, ptr %10, align 8
  call void @_ZN32pxrInternal_v0_24__pxrReserved__8GfBBox3dC2ERKNS_9GfRange3dERKNS_10GfMatrix4dE(ptr noundef nonnull align 8 dereferenceable(306) %13, ptr noundef nonnull align 8 dereferenceable(48) %14, ptr noundef nonnull align 8 dereferenceable(128) %31)
  call void @_ZNK32pxrInternal_v0_24__pxrReserved__8GfBBox3d19ComputeAlignedRangeEv(ptr dead_on_unwind writable sret(%"class.pxrInternal_v0_24__pxrReserved__::GfRange3d") align 8 %19, ptr noundef nonnull align 8 dereferenceable(306) %13)
  %32 = call noundef nonnull align 8 dereferenceable(24) ptr @_ZNK32pxrInternal_v0_24__pxrReserved__9GfRange3d6GetMinEv(ptr noundef nonnull align 8 dereferenceable(48) %19)
  call void @_ZN32pxrInternal_v0_24__pxrReserved__7GfVec3fC2ERKNS_7GfVec3dE(ptr noundef nonnull align 4 dereferenceable(12) %20, ptr noundef nonnull align 8 dereferenceable(24) %32)
  %33 = load ptr, ptr %11, align 8
  %34 = call noundef nonnull align 4 dereferenceable(12) ptr @_ZN32pxrInternal_v0_24__pxrReserved__7VtArrayINS_7GfVec3fEEixEm(ptr noundef nonnull align 8 dereferenceable(40) %33, i64 noundef 0)
  call void @llvm.memcpy.p0.p0.i64(ptr align 4 %34, ptr align 4 %20, i64 12, i1 false)
  %35 = call noundef nonnull align 8 dereferenceable(24) ptr @_ZNK32pxrInternal_v0_24__pxrReserved__9GfRange3d6GetMaxEv(ptr noundef nonnull align 8 dereferenceable(48) %19)
  call void @_ZN32pxrInternal_v0_24__pxrReserved__7GfVec3fC2ERKNS_7GfVec3dE(ptr noundef nonnull align 4 dereferenceable(12) %21, ptr noundef nonnull align 8 dereferenceable(24) %35)
  %36 = load ptr, ptr %11, align 8
  %37 = call noundef nonnull align 4 dereferenceable(12) ptr @_ZN32pxrInternal_v0_24__pxrReserved__7VtArrayINS_7GfVec3fEEixEm(ptr noundef nonnull align 8 dereferenceable(40) %36, i64 noundef 1)
  call void @llvm.memcpy.p0.p0.i64(ptr align 4 %37, ptr align 4 %21, i64 12, i1 false)
  store i1 true, ptr %6, align 1
  br label %38

38:                                               ; preds = %28, %27
  %39 = load i1, ptr %6, align 1
  ret i1 %39
}